; ModuleID = '10/1174.c'
source_filename = "10/1174.c"
target datalayout = "e-m:e-p270:32:32-p271:32:32-p272:64:64-i64:64-f80:128-n8:16:32:64-S128"
target triple = "x86_64-pc-linux-gnu"

@x = common dso_local global i32 0, align 4
@height = common dso_local global [26 x i32] zeroinitializer, align 16
@.str = private unnamed_addr constant [3 x i8] c"%d\00", align 1

; Function Attrs: noinline nounwind uwtable
define dso_local i32 @cmp(i32 %0, i32 %1) #0 {
  %3 = alloca i32, align 4
  %4 = alloca i32, align 4
  store i32 %0, i32* %3, align 4
  store i32 %1, i32* %4, align 4
  %5 = load i32, i32* %3, align 4
  %6 = load i32, i32* %4, align 4
  %7 = icmp sgt i32 %5, %6
  br i1 %7, label %8, label %10

8:                                                ; preds = %2
  %9 = load i32, i32* %3, align 4
  br label %12

10:                                               ; preds = %2
  %11 = load i32, i32* %4, align 4
  br label %12

12:                                               ; preds = %10, %8
  %13 = phi i32 [ %9, %8 ], [ %11, %10 ]
  ret i32 %13
}

; Function Attrs: noinline nounwind uwtable
define dso_local i32 @max(i32 %0, i32 %1) #0 {
  %3 = alloca i32, align 4
  %4 = alloca i32, align 4
  %5 = alloca i32, align 4
  store i32 %0, i32* %4, align 4
  store i32 %1, i32* %5, align 4
  %6 = load i32, i32* %5, align 4
  %7 = load i32, i32* @x, align 4
  %8 = icmp eq i32 %6, %7
  br i1 %8, label %9, label %18

9:                                                ; preds = %2
  %10 = load i32, i32* %4, align 4
  %11 = load i32, i32* @x, align 4
  %12 = sext i32 %11 to i64
  %13 = getelementptr inbounds [26 x i32], [26 x i32]* @height, i64 0, i64 %12
  %14 = load i32, i32* %13, align 4
  %15 = icmp sge i32 %10, %14
  br i1 %15, label %16, label %17

16:                                               ; preds = %9
  store i32 1, i32* %3, align 4
  br label %44

17:                                               ; preds = %9
  store i32 0, i32* %3, align 4
  br label %44

18:                                               ; preds = %2
  %19 = load i32, i32* %4, align 4
  %20 = load i32, i32* %5, align 4
  %21 = sext i32 %20 to i64
  %22 = getelementptr inbounds [26 x i32], [26 x i32]* @height, i64 0, i64 %21
  %23 = load i32, i32* %22, align 4
  %24 = icmp slt i32 %19, %23
  br i1 %24, label %25, label %30

25:                                               ; preds = %18
  %26 = load i32, i32* %4, align 4
  %27 = load i32, i32* %5, align 4
  %28 = add nsw i32 %27, 1
  %29 = call i32 @max(i32 %26, i32 %28)
  store i32 %29, i32* %3, align 4
  br label %44

30:                                               ; preds = %18
  %31 = load i32, i32* %4, align 4
  %32 = load i32, i32* %5, align 4
  %33 = add nsw i32 %32, 1
  %34 = call i32 @max(i32 %31, i32 %33)
  %35 = load i32, i32* %5, align 4
  %36 = sext i32 %35 to i64
  %37 = getelementptr inbounds [26 x i32], [26 x i32]* @height, i64 0, i64 %36
  %38 = load i32, i32* %37, align 4
  %39 = load i32, i32* %5, align 4
  %40 = add nsw i32 %39, 1
  %41 = call i32 @max(i32 %38, i32 %40)
  %42 = add nsw i32 1, %41
  %43 = call i32 @cmp(i32 %34, i32 %42)
  store i32 %43, i32* %3, align 4
  br label %44

44:                                               ; preds = %30, %25, %17, %16
  %45 = load i32, i32* %3, align 4
  ret i32 %45
}

; Function Attrs: noinline nounwind uwtable
define dso_local i32 @main() #0 {
  %1 = alloca i32, align 4
  %2 = alloca i32, align 4
  store i32 0, i32* %1, align 4
  %3 = call i32 (i8*, ...) @__isoc99_scanf(i8* getelementptr inbounds ([3 x i8], [3 x i8]* @.str, i64 0, i64 0), i32* @x)
  store i32 0, i32* %2, align 4
  br label %4

4:                                                ; preds = %13, %0
  %5 = load i32, i32* %2, align 4
  %6 = load i32, i32* @x, align 4
  %7 = icmp slt i32 %5, %6
  br i1 %7, label %8, label %16

8:                                                ; preds = %4
  %9 = load i32, i32* %2, align 4
  %10 = sext i32 %9 to i64
  %11 = getelementptr inbounds [26 x i32], [26 x i32]* @height, i64 0, i64 %10
  %12 = call i32 (i8*, ...) @__isoc99_scanf(i8* getelementptr inbounds ([3 x i8], [3 x i8]* @.str, i64 0, i64 0), i32* %11)
  br label %13

13:                                               ; preds = %8
  %14 = load i32, i32* %2, align 4
  %15 = add nsw i32 %14, 1
  store i32 %15, i32* %2, align 4
  br label %4

16:                                               ; preds = %4
  %17 = load i32, i32* @x, align 4
  %18 = add nsw i32 %17, -1
  store i32 %18, i32* @x, align 4
  %19 = call i32 @max(i32 1000000, i32 0)
  %20 = call i32 (i8*, ...) @printf(i8* getelementptr inbounds ([3 x i8], [3 x i8]* @.str, i64 0, i64 0), i32 %19)
  %21 = load i32, i32* %1, align 4
  ret i32 %21
}

declare dso_local i32 @__isoc99_scanf(i8*, ...) #1

declare dso_local i32 @printf(i8*, ...) #1


!llvm.module.flags = !{!0}
!llvm.ident = !{!1}

!0 = !{i32 1, !"wchar_size", i32 4}
!1 = !{!"clang version 10.0.0-4ubuntu1 "}
